; Function Attrs: mustprogress uwtable
define void @_ZN3gmx10TextWriter9writeLineEPKc(ptr noundef nonnull readonly align 8 captures(none) dereferenceable(8) %0, ptr noundef %1) local_unnamed_addr #0 align 2 {
  tail call void @_ZN3gmx10TextWriter11writeStringEPKc(ptr noundef nonnull align 8 dereferenceable(8) %0, ptr noundef %1)
  %3 = load ptr, ptr %0, align 8, !tbaa !4
  %4 = getelementptr inbounds nuw i8, ptr %3, i64 32
  %5 = load i32, ptr %4, align 8, !tbaa !26
  %6 = icmp eq i32 %5, 0
  br i1 %6, label %7, label %_ZN3gmx10TextWriter15ensureLineBreakEv.exit

7:                                                ; preds = %2
  tail call void @_ZN3gmx10TextWriter4Impl14writeRawStringEPKc(ptr noundef nonnull align 8 dereferenceable(41) %3, ptr noundef nonnull @.str)
  br label %_ZN3gmx10TextWriter15ensureLineBreakEv.exit

_ZN3gmx10TextWriter15ensureLineBreakEv.exit:      ; preds = %2, %7
  ret void
}